target datalayout = "e-m:e-p270:32:32-p271:32:32-p272:64:64-i64:64-i128:128-f80:128-n8:16:32:64-S128"
target triple = "x86_64-pc-linux-gnu"

%struct.SDL_VideoDisplay = type { i32, ptr, i32, i32, ptr, %struct.SDL_DisplayMode, ptr, i32, i32, float, %struct.SDL_HDROutputProperties, i8, ptr, ptr, i32, ptr }
%struct.SDL_DisplayMode = type { i32, i32, i32, i32, float, float, i32, i32, ptr }
%struct.SDL_HDROutputProperties = type { float, float }
%struct.SDL_DisplayData = type { ptr, ptr, ptr, ptr, ptr, double, i32, i32, i32, i32, i32, i32, i32, i32, i32, i32, i32, i32, i8, i8, i8, %struct.SDL_HDROutputProperties, i32, %struct.SDL_VideoDisplay, i32, ptr }

; Function Attrs: nounwind uwtable
define internal void @display_handle_mode(ptr noundef %0, ptr noundef %1, i32 noundef %2, i32 noundef %3, i32 noundef %4, i32 noundef %5) #0 {
  %7 = alloca ptr, align 8
  %8 = alloca ptr, align 8
  %9 = alloca i32, align 4
  %10 = alloca i32, align 4
  %11 = alloca i32, align 4
  %12 = alloca i32, align 4
  %13 = alloca ptr, align 8
  store ptr %0, ptr %7, align 8
  store ptr %1, ptr %8, align 8
  store i32 %2, ptr %9, align 4
  store i32 %3, ptr %10, align 4
  store i32 %4, ptr %11, align 4
  store i32 %5, ptr %12, align 4
  call void @llvm.lifetime.start.p0(i64 8, ptr %13) #8
  %14 = load ptr, ptr %7, align 8
  store ptr %14, ptr %13, align 8
  %15 = load i32, ptr %9, align 4
  %16 = and i32 %15, 1
  %17 = icmp ne i32 %16, 0
  br i1 %17, label %18, label %40

18:                                               ; preds = %6
  %19 = load i32, ptr %10, align 4
  %20 = load ptr, ptr %13, align 8
  %21 = getelementptr inbounds nuw %struct.SDL_DisplayData, ptr %20, i32 0, i32 9
  store i32 %19, ptr %21, align 4
  %22 = load i32, ptr %11, align 4
  %23 = load ptr, ptr %13, align 8
  %24 = getelementptr inbounds nuw %struct.SDL_DisplayData, ptr %23, i32 0, i32 10
  store i32 %22, ptr %24, align 8
  %25 = load ptr, ptr %13, align 8
  %26 = getelementptr inbounds nuw %struct.SDL_DisplayData, ptr %25, i32 0, i32 19
  %27 = load i8, ptr %26, align 1, !range !5, !noundef !6
  %28 = trunc i8 %27 to i1
  br i1 %28, label %36, label %29

29:                                               ; preds = %18
  %30 = load i32, ptr %10, align 4
  %31 = load ptr, ptr %13, align 8
  %32 = getelementptr inbounds nuw %struct.SDL_DisplayData, ptr %31, i32 0, i32 7
  store i32 %30, ptr %32, align 4
  %33 = load i32, ptr %11, align 4
  %34 = load ptr, ptr %13, align 8
  %35 = getelementptr inbounds nuw %struct.SDL_DisplayData, ptr %34, i32 0, i32 8
  store i32 %33, ptr %35, align 8
  br label %36

36:                                               ; preds = %29, %18
  %37 = load i32, ptr %12, align 4
  %38 = load ptr, ptr %13, align 8
  %39 = getelementptr inbounds nuw %struct.SDL_DisplayData, ptr %38, i32 0, i32 13
  store i32 %37, ptr %39, align 4
  br label %40

40:                                               ; preds = %36, %6
  call void @llvm.lifetime.end.p0(i64 8, ptr %13) #8
  ret void
}