; Function Attrs: mustprogress nofree norecurse nosync nounwind willreturn memory(argmem: readwrite) uwtable
define internal void @display_handle_mode(ptr noundef captures(none) %0, ptr readnone captures(none) %1, i32 noundef %2, i32 noundef %3, i32 noundef %4, i32 noundef %5) #8 {
  %7 = and i32 %2, 1
  %.not = icmp eq i32 %7, 0
  br i1 %.not, label %19, label %8

8:                                                ; preds = %6
  %9 = getelementptr inbounds nuw i8, ptr %0, i64 60
  store i32 %3, ptr %9, align 4
  %10 = getelementptr inbounds nuw i8, ptr %0, i64 64
  store i32 %4, ptr %10, align 8
  %11 = getelementptr inbounds nuw i8, ptr %0, i64 97
  %12 = load i8, ptr %11, align 1, !range !5, !noundef !6
  %13 = trunc nuw i8 %12 to i1
  br i1 %13, label %17, label %14

14:                                               ; preds = %8
  %15 = getelementptr inbounds nuw i8, ptr %0, i64 52
  store i32 %3, ptr %15, align 4
  %16 = getelementptr inbounds nuw i8, ptr %0, i64 56
  store i32 %4, ptr %16, align 8
  br label %17

17:                                               ; preds = %14, %8
  %18 = getelementptr inbounds nuw i8, ptr %0, i64 76
  store i32 %5, ptr %18, align 4
  br label %19

19:                                               ; preds = %17, %6
  ret void
}